(lp0
F0.0
aF-0.010000000000000002
aF-0.019000000000000003
aF-0.027100000000000006
aF-0.034390000000000004
aF-0.040951
aF-0.046855900000000006
aF-0.052170310000000004
aF-0.056953279
aF-0.0612579511
aF-0.06513215599
aF-0.068618940391
aF-0.0717570463519
aF-0.07458134171671
aF-0.07712320754503901
aF-0.07941088679053511
aF-0.0814697981114816
aF-0.08332281830033345
aF-0.0849905364703001
aF-0.08649148282327009
aF-0.08784233454094308
aF-0.08905810108684876
aF-0.0901522909781639
aF-0.09113706188034751
aF-0.09202335569231276
aF-0.0928210201230815
aF-0.09353891811077335
aF-0.09418502629969601
aF-0.0947665236697264
aF-0.09528987130275376
aF-0.09576088417247838
aF-0.09618479575523055
aF-0.0965663161797075
aF-0.09690968456173675
aF-0.09721871610556307
aF-0.09749684449500676
aF-0.09774716004550608
aF-0.09797244404095548
aF-0.09817519963685993
aF-0.09835767967317394
aF-0.09852191170585654
aF-0.09866972053527089
aF-0.0988027484817438
aF-0.09892247363356942
aF-0.09903022627021248
aF-0.09912720364319123
aF-0.09921448327887211
aF-0.0992930349509849
aF-0.09936373145588641
aF-0.09942735831029777
aF-0.099484622479268
aF-0.0995361602313412
aF-0.09958254420820707
aF-0.09962428978738637
aF-0.09966186080864774
aF-0.09969567472778296
aF-0.09972610725500466
aF-0.0997534965295042
aF-0.09977814687655379
aF-0.0998003321888984
aF-0.09982029897000856
aF-0.0998382690730077
aF-0.09985444216570694
aF-0.09986899794913624
aF-0.09988209815422262
aF-0.09989388833880036
aF-0.09990449950492032
aF-0.09991404955442829
aF-0.09992264459898546
aF-0.09993038013908692
aF-0.09993734212517823
aF-0.09994360791266041
aF-0.09994924712139437
aF-0.09995432240925493
aF-0.09995889016832944
aF-0.0999630011514965
aF-0.09996670103634686
aF-0.09997003093271217
aF-0.09997302783944095
aF-0.09997572505549686
aF-0.09997815254994717
aF-0.09998033729495245
aF-0.0999823035654572
aF-0.09998407320891148
aF-0.09998566588802033
aF-0.0999870992992183
aF-0.09998838936929647
aF-0.09998955043236682
aF-0.09999059538913013
aF-0.09999153585021713
aF-0.09999238226519541
aF-0.09999314403867587
aF-0.09999382963480828
aF-0.09999444667132745
aF-0.09999500200419471
aF-0.09999550180377524
aF-0.09999595162339772
aF-0.09999635646105795
aF-0.09999672081495216
aF-0.09999704873345694
aF-0.09999734386011125
aF-0.09999760947410012
aF-0.09999784852669011
aF-0.0999980636740211
aF-0.09999825730661899
aF-0.09999843157595709
aF-0.09999858841836137
aF-0.09999872957652524
aF-0.09999885661887271
aF-0.09999897095698544
aF-0.0999990738612869
aF-0.0999991664751582
aF-0.09999924982764238
aF-0.09999932484487814
aF-0.09999939236039032
aF-0.0999994531243513
aF-0.09999950781191616
aF-0.09999955703072455
aF-0.0999996013276521
aF-0.09999964119488688
aF-0.0999996770753982
aF-0.09999970936785837
aF-0.09999973843107254
aF-0.09999976458796529
aF-0.09999978812916877
aF-0.0999998093162519
aF-0.0999998283846267
aF-0.09999984554616403
aF-0.09999986099154763
aF-0.09999987489239287
aF-0.09999988740315359
aF-0.09999989866283823
aF-0.0999999087965544
aF-0.09999991791689897
aF-0.09999992612520907
aF-0.09999993351268816
aF-0.09999994016141935
aF-0.09999994614527741
aF-0.09999995153074967
aF-0.0999999563776747
aF-0.09999996073990723
aF-0.09999996466591651
aF-0.09999996819932486
aF-0.09999997137939237
aF-0.09999997424145314
aF-0.09999997681730782
aF-0.09999997913557704
aF-0.09999998122201934
aF-0.0999999830998174
aF-0.09999998478983567
aF-0.09999998631085211
aF-0.0999999876797669
aF-0.09999998891179021
aF-0.09999999002061119
aF-0.09999999101855007
aF-0.09999999191669506
aF-0.09999999272502556
aF-0.099999993452523
aF-0.0999999941072707
aF-0.09999999469654364
aF-0.09999999522688928
aF-0.09999999570420035
aF-0.09999999613378031
aF-0.09999999652040228
aF-0.09999999686836206
aF-0.09999999718152586
aF-0.09999999746337328
aF-0.09999999771703595
aF-0.09999999794533236
aF-0.09999999815079913
aF-0.09999999833571922
aF-0.0999999985021473
aF-0.09999999865193257
aF-0.09999999878673932
aF-0.0999999989080654
aF-0.09999999901725885
aF-0.09999999911553296
aF-0.09999999920397967
aF-0.0999999992835817
aF-0.09999999935522354
aF-0.09999999941970118
aF-0.09999999947773107
aF-0.09999999952995796
aF-0.09999999957696216
aF-0.09999999961926595
aF-0.09999999965733936
aF-0.09999999969160542
aF-0.09999999972244487
aF-0.09999999975020038
aF-0.09999999977518034
aF-0.0999999997976623
aF-0.09999999981789608
aF-0.09999999983610647
aF-0.09999999985249582
aF-0.09999999986724624
aF-0.09999999988052162
aF-0.09999999989246947
aF-0.09999999990322252
aF-0.09999999991290026
aF-0.09999999992161024
aF-0.09999999992944922
aF-0.0999999999365043
aF-0.09999999994285387
aF-0.09999999994856848
aF-0.09999999995371163
aF-0.09999999995834047
aF-0.09999999996250643
aF-0.09999999996625579
aF-0.09999999996963022
aF-0.09999999997266719
aF-0.09999999997540047
aF-0.09999999997786042
aF-0.09999999998007439
aF-0.09999999998206695
aF-0.09999999998386025
aF-0.09999999998547422
aF-0.0999999999869268
aF-0.09999999998823411
aF-0.0999999999894107
aF-0.09999999999046963
aF-0.09999999999142267
aF-0.0999999999922804
aF-0.09999999999305237
aF-0.09999999999374713
aF-0.09999999999437242
aF-0.09999999999493518
aF-0.09999999999544167
aF-0.0999999999958975
aF-0.09999999999630775
aF-0.09999999999667697
aF-0.09999999999700927
aF-0.09999999999730835
aF-0.09999999999757751
aF-0.09999999999781976
aF-0.09999999999803778
aF-0.099999999998234
aF-0.0999999999984106
aF-0.09999999999856954
aF-0.09999999999871259
aF-0.09999999999884134
aF-0.0999999999989572
aF-0.09999999999906148
aF-0.09999999999915533
aF-0.09999999999923981
aF-0.09999999999931583
aF-0.09999999999938425
aF-0.09999999999944582
aF-0.09999999999950124
aF-0.09999999999955111
aF-0.09999999999959601
aF-0.09999999999963641
aF-0.09999999999967277
aF-0.09999999999970549
aF-0.09999999999973494
aF-0.09999999999976145
aF-0.0999999999997853
aF-0.09999999999980677
aF-0.09999999999982609
aF-0.09999999999984348
aF-0.09999999999985913
aF-0.09999999999987322
aF-0.0999999999998859
aF-0.09999999999989731
aF-0.09999999999990758
aF-0.09999999999991682
aF-0.09999999999992513
aF-0.09999999999993262
aF-0.09999999999993936
aF-0.09999999999994542
aF-0.09999999999995088
aF-0.09999999999995579
aF-0.09999999999996022
aF-0.0999999999999642
aF-0.09999999999996778
aF-0.099999999999971
aF-0.0999999999999739
aF-0.09999999999997651
aF-0.09999999999997886
aF-0.09999999999998097
aF-0.09999999999998287
aF-0.09999999999998457
aF-0.09999999999998611
aF-0.0999999999999875
a.