(lp0
F0.0
aF-0.0
aF0.003559385970900032
aF0.006745656070580569
aF0.009398775684851663
aF0.011446908512358606
aF0.012913623206594891
aF0.01908195383599429
aF0.018759390542545246
aF0.01788476006704103
aF0.016730991858228603
aF0.01555493087188339
aF0.021570630116342502
aF0.018356948100497913
aF0.015684738569802625
aF0.01365173160972451
aF0.021150323161721916
aF0.017025037614369524
aF0.014074050551613967
aF0.02264922159920674
aF0.017494332071591626
aF0.01398787302947129
aF0.023555157371478022
aF0.017710610878776265
aF0.013894231595503227
aF0.024244044607954294
aF0.01794713637367911
aF0.013975182130061537
aF0.024765827413401876
aF0.01821481071154561
aF0.027006931895882297
aF0.018992235149299375
aF0.013979619843234824
aF0.02456557653753284
aF0.017278518530349105
aF0.012804272344124751
aF0.024504017190644205
aF0.017316811357934735
aF0.01298359036992572
aF0.02493426925515716
aF0.01776900617508804
aF0.026974558341703852
aF0.018468056051580962
aF0.013311256435761556
aF0.024219932564466164
aF0.01672112517732239
aF0.012220210916402399
aF0.024006680176110958
aF0.016741697216972076
aF0.01243236941879997
aF0.02424554224533939
aF0.017103107448487778
aF0.026066519802500052
aF0.01766502964463606
aF0.01261878355844302
aF0.023264393207597635
aF0.015910763042990092
aF0.011519812236885009
aF0.0230194138754264
aF0.015895683943128326
aF0.011673320748585698
aF0.023223174503216464
aF0.016197129296356153
aF0.024972038829166522
aF0.016736233576178552
aF0.011791988310186295
aF0.022285100130788604
aF0.015043805727168997
aF0.010708367598622212
aF0.022071279170644366
aF0.01500626819085432
aF0.010790460126492018
aF0.02228544438610669
aF0.015257649714819117
aF0.011080647064176581
aF0.022287810946762857
aF0.015361476815487338
aF0.01126347064876046
aF0.019014123633194904
aF0.013190737270014118
aF0.010715611435439905
aF0.007133495148518602
aF0.0049830214595985535
aF0.0010517319892780594
aF0.0007038930497876921
aF0.0004953276143424156
aF-0.0028456724096275056
aF-0.0019153230114410584
aF-0.0013584188377609606
aF-0.003860171424063003
aF-0.002613761143190729
aF-0.0018693455789210581
aF-0.0038103241174201933
aF-0.002596447495786233
aF-0.0018736156800336255
aF-0.0035462047168822635
aF-0.0024328042242946573
aF-0.001772363643746197
aF-0.0033496426704450522
aF-0.0023144513371818045
aF-0.0035267892031796656
aF-0.0023419500601327956
aF-0.0016305303363459056
aF-0.003142368828722898
aF-0.0020990349285027513
aF-0.0014732797070396068
aF-0.0031535959926077828
aF-0.002119738682137905
aF-0.0015007012641841543
aF-0.0032392477993988065
aF-0.0021917736402983323
aF-0.0015660596879081656
aF-0.0032986773629823762
aF-0.0022477177163898114
aF-0.0016219397932185624
aF-0.0033199093455431395
aF-0.002279129919377339
aF-0.0016620767624305037
aF-0.0033158591773487923
aF-0.0022944983637525557
aF-0.0035582399397728628
aF-0.0023668646622507523
aF-0.0016517390262450972
aF-0.003195081216064227
aF-0.002139336179083161
aF-0.0015065140797437479
aF-0.0032055603064185556
aF-0.0021613990362717244
aF-0.0015368463485032132
aF-0.003285845096032639
aF-0.002232043474198069
aF-0.0016036281330413773
aF-0.003340034362505898
aF-0.0022868597333686406
aF-0.0016614357969707036
aF-0.003356670293311811
aF-0.002317708847044635
aF-0.0036074248193967307
aF-0.0023967309480975294
aF-0.001669869229098116
aF-0.003239186473337159
aF-0.0021672701982852704
aF-0.0015246377082302883
aF-0.0032477260656815984
aF-0.00218930560363142
aF-0.0015561720876616646
aF-0.003327185341578539
aF-0.002260826464013108
aF-0.0016250157992031267
aF-0.003380753856081846
aF-0.0023168687083257506
aF-0.001685435173350291
aF-0.0033962787817980807
aF-0.0023488062953602386
aF-0.0036477565636053345
aF-0.0024277034066000763
aF-0.0016954353285312945
aF-0.0032737921443983095
aF-0.0021955151543694732
aF-0.0015494621778034414
aF-0.003281373077108447
aF-0.0022185995406951383
aF-0.0015835649780693948
aF-0.003361035808165489
aF-0.00229234192631905
aF-0.0016563205925657248
aF-0.003413786242455732
aF-0.002350153760335361
aF-0.0017207354049763911
aF-0.0034269174286945363
aF-0.0023829645981820772
aF-0.003677741851477683
aF-0.002459252862358606
aF-0.0017286437251269808
aF-0.0032998507422525303
aF-0.0022252286256536887
aF-0.001582483491234304
aF-0.0033072060688141276
aF-0.002250405274744613
aF-0.001620717922537381
aF-0.003387319391071271
aF-0.0023273617156392653
aF-0.001699286644043784
aF-0.003438297787466383
aF-0.0023871587514666358
aF-0.003708151847997791
aF-0.0024776183709114903
aF-0.0017396504447254478
aF-0.0033357415946392447
aF-0.0022485251669289957
aF-0.00159815523424244
aF-0.0033442377672782287
aF-0.00227569211101639
aF-0.0016390188286576099
aF-0.003423688824667206
aF-0.002353619282854202
aF-0.0017197787289437078
aF-0.0034733850986763564
aF-0.002414193629430285
aF-0.0037437190195628847
aF-0.0025045808246012265
aF-0.0017616771888929064
aF-0.003366064312465002
aF-0.002273051778061236
aF-0.001619639424568758
aF-0.0033735345134917718
aF-0.0023011187957916435
aF-0.0016629195751605105
aF-0.0034529677678288304
aF-0.002381015522923952
aF-0.0017474079289558526
aF-0.0035016914749472355
aF-0.0024431798086710045
aF-0.0037719546487157305
aF-0.0025320597653861227
aF-0.0017893778145451043
aF-0.0033904132205170405
aF-0.0022988431554730317
aF-0.001647367952254659
aF-0.0033972227170354207
aF-0.002328524141615491
aF-0.0016942954777806436
aF-0.0034766022956153886
aF-0.002411051276847085
aF-0.001784027820492031
aF-0.0035234231748184643
aF-0.0024748977325636467
aF-0.0037924593797039074
aF-0.0025602783602884267
aF-0.0018235936626441556
aF-0.00340812118636285
aF-0.0023259910087461235
aF-0.0016822004914055927
aF-0.0034144886536668817
aF-0.0023580234846260237
aF-0.0017342626160832724
aF-0.0034936330686586568
aF-0.0024439110680247638
aF-0.003795603766701498
aF-0.0025550815707759762
aF-0.0018126679924742072
aF-0.003435779471541427
aF-0.002338536564198714
aF-0.0016848407480857153
aF-0.0034513419347155508
aF-0.002377486156280287
aF-0.001742294191475865
aF-0.0035319561263907626
aF-0.0024650686431318693
aF-0.0038350092576389357
aF-0.002577854626447332
aF-0.0018251378215113202
aF-0.0034686311568940986
aF-0.002358063588739439
aF-0.0016960431996324264
aF-0.0034825937179492265
aF-0.0023968510556005695
aF-0.0017542243766838087
aF-0.003563088943302902
aF-0.0024854312037228816
aF-0.003867677547982995
aF-0.0025995681477601873
aF-0.0018402700898757871
aF-0.003497041222283891
aF-0.0023780012870221
aF-0.0017110141739024854
aF-0.003510237135595943
aF-0.0024175171557192236
aF-0.0017710655526220758
aF-0.003590692913228978
aF-0.002507613433816111
aF-0.003896278316265404
aF-0.002622090581119507
aF-0.0018594567498819397
aF-0.003521898848596243
aF-0.0023990475720909116
aF-0.0017303605197536074
aF-0.0035343134234316702
aF-0.002439643517708877
aF-0.0017931016283330313
aF-0.003614510117896271
aF-0.0025316196182780626
aF-0.003920486006988355
a.